; Function Attrs: mustprogress uwtable
define noundef nonnull align 8 dereferenceable(100) ptr @_ZN8proxygen11ProxyStatus14setServerErrorEb(ptr noundef nonnull align 8 dereferenceable(100) %this, i1 noundef zeroext %isServerError) local_unnamed_addr #0 align 2 personality ptr @__gxx_personality_v0 {
entry:
  %ref.tmp = alloca %"class.std::__cxx11::basic_string", align 8
  %ref.tmp2 = alloca %"class.std::allocator.0", align 1
  %ref.tmp6 = alloca %"class.std::__cxx11::basic_string", align 8
  %ref.tmp7 = alloca %"class.std::allocator.0", align 1
  br i1 %isServerError, label %if.then, label %if.else

if.then:                                          ; preds = %entry
  call void @_ZNSaIcEC1Ev(ptr noundef nonnull align 1 dereferenceable(1) %ref.tmp2) #23
  %call.i5 = invoke noundef ptr @_ZNSt7__cxx1112basic_stringIcSt11char_traitsIcESaIcEE13_M_local_dataEv(ptr noundef nonnull align 8 dereferenceable(32) %ref.tmp)
          to label %call.i.noexc unwind label %lpad

call.i.noexc:                                     ; preds = %if.then
  invoke void @_ZNSt7__cxx1112basic_stringIcSt11char_traitsIcESaIcEE12_Alloc_hiderC1EPcRKS3_(ptr noundef nonnull align 8 dereferenceable(8) %ref.tmp, ptr noundef %call.i5, ptr noundef nonnull align 1 dereferenceable(1) %ref.tmp2)
          to label %.noexc unwind label %lpad

.noexc:                                           ; preds = %call.i.noexc
  invoke void @_ZNSt7__cxx1112basic_stringIcSt11char_traitsIcESaIcEE12_M_constructIPKcEEvT_S8_St20forward_iterator_tag(ptr noundef nonnull align 8 dereferenceable(32) %ref.tmp, ptr noundef nonnull @.str.13, ptr noundef nonnull getelementptr inbounds ([5 x i8], ptr @.str.13, i64 0, i64 4))
          to label %invoke.cont unwind label %lpad.i

lpad.i:                                           ; preds = %.noexc
  %0 = landingpad { ptr, i32 }
          cleanup
  call void @_ZNSaIcED2Ev(ptr noundef nonnull align 1 dereferenceable(1) %ref.tmp) #23
  br label %eh.resume

invoke.cont:                                      ; preds = %.noexc
  %vtable = load ptr, ptr %this, align 8
  %vfn = getelementptr inbounds i8, ptr %vtable, i64 16
  %1 = load ptr, ptr %vfn, align 8
  %call = invoke noundef nonnull align 8 dereferenceable(100) ptr %1(ptr noundef nonnull align 8 dereferenceable(100) %this, ptr nonnull @.str.18, ptr nonnull getelementptr inbounds ([14 x i8], ptr @.str.18, i64 0, i64 13), ptr noundef nonnull align 8 dereferenceable(32) %ref.tmp)
          to label %return unwind label %lpad3

lpad:                                             ; preds = %call.i.noexc, %if.then
  %2 = landingpad { ptr, i32 }
          cleanup
  br label %eh.resume

lpad3:                                            ; preds = %invoke.cont
  %3 = landingpad { ptr, i32 }
          cleanup
  call void @_ZNSt7__cxx1112basic_stringIcSt11char_traitsIcESaIcEED1Ev(ptr noundef nonnull align 8 dereferenceable(32) %ref.tmp) #23
  br label %eh.resume

if.else:                                          ; preds = %entry
  call void @_ZNSaIcEC1Ev(ptr noundef nonnull align 1 dereferenceable(1) %ref.tmp7) #23
  %call.i10 = invoke noundef ptr @_ZNSt7__cxx1112basic_stringIcSt11char_traitsIcESaIcEE13_M_local_dataEv(ptr noundef nonnull align 8 dereferenceable(32) %ref.tmp6)
          to label %call.i.noexc9 unwind label %lpad8

call.i.noexc9:                                    ; preds = %if.else
  invoke void @_ZNSt7__cxx1112basic_stringIcSt11char_traitsIcESaIcEE12_Alloc_hiderC1EPcRKS3_(ptr noundef nonnull align 8 dereferenceable(8) %ref.tmp6, ptr noundef %call.i10, ptr noundef nonnull align 1 dereferenceable(1) %ref.tmp7)
          to label %.noexc11 unwind label %lpad8

.noexc11:                                         ; preds = %call.i.noexc9
  invoke void @_ZNSt7__cxx1112basic_stringIcSt11char_traitsIcESaIcEE12_M_constructIPKcEEvT_S8_St20forward_iterator_tag(ptr noundef nonnull align 8 dereferenceable(32) %ref.tmp6, ptr noundef nonnull @.str.14, ptr noundef nonnull getelementptr inbounds ([6 x i8], ptr @.str.14, i64 0, i64 5))
          to label %invoke.cont9 unwind label %lpad.i8

lpad.i8:                                          ; preds = %.noexc11
  %4 = landingpad { ptr, i32 }
          cleanup
  call void @_ZNSaIcED2Ev(ptr noundef nonnull align 1 dereferenceable(1) %ref.tmp6) #23
  br label %eh.resume

invoke.cont9:                                     ; preds = %.noexc11
  %vtable10 = load ptr, ptr %this, align 8
  %vfn11 = getelementptr inbounds i8, ptr %vtable10, i64 16
  %5 = load ptr, ptr %vfn11, align 8
  %call14 = invoke noundef nonnull align 8 dereferenceable(100) ptr %5(ptr noundef nonnull align 8 dereferenceable(100) %this, ptr nonnull @.str.18, ptr nonnull getelementptr inbounds ([14 x i8], ptr @.str.18, i64 0, i64 13), ptr noundef nonnull align 8 dereferenceable(32) %ref.tmp6)
          to label %return unwind label %lpad12

lpad8:                                            ; preds = %call.i.noexc9, %if.else
  %6 = landingpad { ptr, i32 }
          cleanup
  br label %eh.resume

lpad12:                                           ; preds = %invoke.cont9
  %7 = landingpad { ptr, i32 }
          cleanup
  call void @_ZNSt7__cxx1112basic_stringIcSt11char_traitsIcESaIcEED1Ev(ptr noundef nonnull align 8 dereferenceable(32) %ref.tmp6) #23
  br label %eh.resume

return:                                           ; preds = %invoke.cont9, %invoke.cont
  %ref.tmp6.sink = phi ptr [ %ref.tmp, %invoke.cont ], [ %ref.tmp6, %invoke.cont9 ]
  %ref.tmp7.sink = phi ptr [ %ref.tmp2, %invoke.cont ], [ %ref.tmp7, %invoke.cont9 ]
  %retval.0 = phi ptr [ %call, %invoke.cont ], [ %call14, %invoke.cont9 ]
  call void @_ZNSt7__cxx1112basic_stringIcSt11char_traitsIcESaIcEED1Ev(ptr noundef nonnull align 8 dereferenceable(32) %ref.tmp6.sink) #23
  call void @_ZNSaIcED1Ev(ptr noundef nonnull align 1 dereferenceable(1) %ref.tmp7.sink) #23
  ret ptr %retval.0

eh.resume:                                        ; preds = %lpad12, %lpad.i8, %lpad8, %lpad3, %lpad.i, %lpad
  %ref.tmp7.sink14 = phi ptr [ %ref.tmp2, %lpad ], [ %ref.tmp2, %lpad.i ], [ %ref.tmp2, %lpad3 ], [ %ref.tmp7, %lpad8 ], [ %ref.tmp7, %lpad.i8 ], [ %ref.tmp7, %lpad12 ]
  %.pn2.pn = phi { ptr, i32 } [ %2, %lpad ], [ %0, %lpad.i ], [ %3, %lpad3 ], [ %6, %lpad8 ], [ %4, %lpad.i8 ], [ %7, %lpad12 ]
  call void @_ZNSaIcED1Ev(ptr noundef nonnull align 1 dereferenceable(1) %ref.tmp7.sink14) #23
  resume { ptr, i32 } %.pn2.pn
}